target datalayout = "e-m:e-p270:32:32-p271:32:32-p272:64:64-i64:64-i128:128-f80:128-n8:16:32:64-S128"
target triple = "x86_64-unknown-linux-gnu"

%"class.euf::th_eq" = type { i32, i32, i32, %union.anon.260, ptr }
%union.anon.260 = type { ptr }

; Function Attrs: mustprogress nounwind uwtable
define linkonce_odr hidden noundef i32 @_ZNK3euf5th_eq2v2Ev(ptr noundef nonnull align 8 dereferenceable(32) %this) #4 comdat align 2 {
entry:
  %this.addr = alloca ptr, align 8
  store ptr %this, ptr %this.addr, align 8
  %this1 = load ptr, ptr %this.addr, align 8
  %m_v2 = getelementptr inbounds %"class.euf::th_eq", ptr %this1, i32 0, i32 2
  %0 = load i32, ptr %m_v2, align 8
  ret i32 %0
}

; Function Attrs: mustprogress nounwind uwtable
define linkonce_odr hidden noundef i32 @_ZNK3euf5th_eq2v1Ev(ptr noundef nonnull align 8 dereferenceable(32) %this) #4 comdat align 2 {
entry:
  %this.addr = alloca ptr, align 8
  store ptr %this, ptr %this.addr, align 8
  %this1 = load ptr, ptr %this.addr, align 8
  %m_v1 = getelementptr inbounds %"class.euf::th_eq", ptr %this1, i32 0, i32 1
  %0 = load i32, ptr %m_v1, align 4
  ret i32 %0
}

; Function Attrs: mustprogress uwtable
define hidden void @_ZN3fpa6solver9new_eq_ehERKN3euf5th_eqE(ptr noundef nonnull align 8 dereferenceable(1556) %this, ptr noundef nonnull align 8 dereferenceable(32) %eq) unnamed_addr #5 align 2 {
entry:
  %this.addr = alloca ptr, align 8
  %eq.addr = alloca ptr, align 8
  store ptr %this, ptr %this.addr, align 8
  store ptr %eq, ptr %eq.addr, align 8
  %this1 = load ptr, ptr %this.addr, align 8
  %0 = load ptr, ptr %eq.addr, align 8
  %call = call noundef i32 @_ZNK3euf5th_eq2v1Ev(ptr noundef nonnull align 8 dereferenceable(32) %0)
  %1 = load ptr, ptr %eq.addr, align 8
  %call2 = call noundef i32 @_ZNK3euf5th_eq2v2Ev(ptr noundef nonnull align 8 dereferenceable(32) %1)
  call void @_ZN3fpa6solver24ensure_equality_relationEii(ptr noundef nonnull align 8 dereferenceable(1556) %this1, i32 noundef %call, i32 noundef %call2)
  ret void
}